; Function Attrs: mustprogress uwtable
define internal noundef zeroext i1 @_ZNSt17_Function_handlerIFvN11OpenImageIO6v3_1_03ROIEEZNS1_L12mad_impl_iciIN9Imath_3_14halfES6_EEbRNS1_8ImageBufERKS7_NS1_4spanIKfLm18446744073709551615EEESA_S2_iEUlS2_E_E10_M_managerERSt9_Any_dataRKSG_St18_Manager_operation(ptr noundef nonnull align 8 captures(none) dereferenceable(16) %0, ptr noundef nonnull readonly align 8 captures(none) dereferenceable(16) %1, i32 noundef %2) #5 align 2 {
  switch i32 %2, label %_ZNSt14_Function_base13_Base_managerIZN11OpenImageIO6v3_1_0L12mad_impl_iciIN9Imath_3_14halfES5_EEbRNS2_8ImageBufERKS6_NS2_4spanIKfLm18446744073709551615EEES9_NS2_3ROIEiEUlSD_E_E10_M_managerERSt9_Any_dataRKSG_St18_Manager_operation.exit [
    i32 0, label %4
    i32 1, label %5
    i32 3, label %8
    i32 2, label %6
  ]

4:                                                ; preds = %3
  store ptr @_ZTIZN11OpenImageIO6v3_1_0L12mad_impl_iciIN9Imath_3_14halfES3_EEbRNS0_8ImageBufERKS4_NS0_4spanIKfLm18446744073709551615EEES7_NS0_3ROIEiEUlSB_E_, ptr %0, align 8, !tbaa !563
  br label %_ZNSt14_Function_base13_Base_managerIZN11OpenImageIO6v3_1_0L12mad_impl_iciIN9Imath_3_14halfES5_EEbRNS2_8ImageBufERKS6_NS2_4spanIKfLm18446744073709551615EEES9_NS2_3ROIEiEUlSD_E_E10_M_managerERSt9_Any_dataRKSG_St18_Manager_operation.exit

5:                                                ; preds = %3
  %.val = load ptr, ptr %1, align 8, !tbaa !71
  store ptr %.val, ptr %0, align 8, !tbaa !71
  br label %_ZNSt14_Function_base13_Base_managerIZN11OpenImageIO6v3_1_0L12mad_impl_iciIN9Imath_3_14halfES5_EEbRNS2_8ImageBufERKS6_NS2_4spanIKfLm18446744073709551615EEES9_NS2_3ROIEiEUlSD_E_E10_M_managerERSt9_Any_dataRKSG_St18_Manager_operation.exit

6:                                                ; preds = %3
  %.val6 = load ptr, ptr %1, align 8
  %7 = tail call noalias noundef nonnull dereferenceable(32) ptr @_Znwm(i64 noundef 32) #29
  tail call void @llvm.memcpy.p0.p0.i64(ptr noundef nonnull align 16 dereferenceable(32) %7, ptr noundef nonnull readonly align 8 dereferenceable(32) %.val6, i64 32, i1 false), !tbaa.struct !649
  store ptr %7, ptr %0, align 8, !tbaa !71
  br label %_ZNSt14_Function_base13_Base_managerIZN11OpenImageIO6v3_1_0L12mad_impl_iciIN9Imath_3_14halfES5_EEbRNS2_8ImageBufERKS6_NS2_4spanIKfLm18446744073709551615EEES9_NS2_3ROIEiEUlSD_E_E10_M_managerERSt9_Any_dataRKSG_St18_Manager_operation.exit

8:                                                ; preds = %3
  %.val7.i = load ptr, ptr %0, align 8, !tbaa !71
  %9 = icmp eq ptr %.val7.i, null
  br i1 %9, label %_ZNSt14_Function_base13_Base_managerIZN11OpenImageIO6v3_1_0L12mad_impl_iciIN9Imath_3_14halfES5_EEbRNS2_8ImageBufERKS6_NS2_4spanIKfLm18446744073709551615EEES9_NS2_3ROIEiEUlSD_E_E10_M_managerERSt9_Any_dataRKSG_St18_Manager_operation.exit, label %10

10:                                               ; preds = %8
  tail call void @_ZdlPvm(ptr noundef nonnull %.val7.i, i64 noundef 32) #26
  br label %_ZNSt14_Function_base13_Base_managerIZN11OpenImageIO6v3_1_0L12mad_impl_iciIN9Imath_3_14halfES5_EEbRNS2_8ImageBufERKS6_NS2_4spanIKfLm18446744073709551615EEES9_NS2_3ROIEiEUlSD_E_E10_M_managerERSt9_Any_dataRKSG_St18_Manager_operation.exit

_ZNSt14_Function_base13_Base_managerIZN11OpenImageIO6v3_1_0L12mad_impl_iciIN9Imath_3_14halfES5_EEbRNS2_8ImageBufERKS6_NS2_4spanIKfLm18446744073709551615EEES9_NS2_3ROIEiEUlSD_E_E10_M_managerERSt9_Any_dataRKSG_St18_Manager_operation.exit: ; preds = %3, %10, %8, %6, %5, %4
  ret i1 false
}